target datalayout = "e-m:e-p270:32:32-p271:32:32-p272:64:64-i64:64-i128:128-f80:128-n8:16:32:64-S128"
target triple = "x86_64-pc-linux-gnu"

%struct.PayloadContext = type { i32, i32, ptr, ptr, ptr, ptr, i32, i32, i32, i32 }

@.str.3 = private unnamed_addr constant [11 x i8] c"profile-id\00", align 1
@.str.4 = private unnamed_addr constant [27 x i8] c"SDP: found profile-id: %d\0A\00", align 1
@.str.5 = private unnamed_addr constant [10 x i8] c"sprop-vps\00", align 1
@.str.6 = private unnamed_addr constant [10 x i8] c"sprop-sps\00", align 1
@.str.7 = private unnamed_addr constant [10 x i8] c"sprop-pps\00", align 1
@.str.8 = private unnamed_addr constant [10 x i8] c"sprop-sei\00", align 1
@.str.9 = private unnamed_addr constant [30 x i8] c"Assertion %s failed at %s:%d\0A\00", align 1
@.str.10 = private unnamed_addr constant [2 x i8] c"0\00", align 1
@.str.11 = private unnamed_addr constant [26 x i8] c"libavformat/rtpdec_hevc.c\00", align 1
@.str.12 = private unnamed_addr constant [19 x i8] c"sprop-max-don-diff\00", align 1
@.str.13 = private unnamed_addr constant [57 x i8] c"Found sprop-max-don-diff in SDP, DON field usage is: %d\0A\00", align 1
@.str.14 = private unnamed_addr constant [23 x i8] c"sprop-depack-buf-nalus\00", align 1
@.str.15 = private unnamed_addr constant [61 x i8] c"Found sprop-depack-buf-nalus in SDP, DON field usage is: %d\0A\00", align 1

; Function Attrs: inlinehint nounwind willreturn memory(read) uwtable
define available_externally i32 @atoi(ptr noundef nonnull %0) #6 {
  %2 = alloca ptr, align 8
  store ptr %0, ptr %2, align 8, !tbaa !13
  %3 = load ptr, ptr %2, align 8, !tbaa !13
  %4 = call i64 @strtol(ptr noundef %3, ptr noundef null, i32 noundef 10) #9
  %5 = trunc i64 %4 to i32
  ret i32 %5
}

; Function Attrs: cold nounwind optsize uwtable
define internal i32 @hevc_sdp_parse_fmtp_config(ptr noundef %0, ptr noundef %1, ptr noundef %2, ptr noundef %3, ptr noundef %4) #0 {
  %6 = alloca ptr, align 8
  %7 = alloca ptr, align 8
  %8 = alloca ptr, align 8
  %9 = alloca ptr, align 8
  %10 = alloca ptr, align 8
  %11 = alloca ptr, align 8
  %12 = alloca ptr, align 8
  store ptr %0, ptr %6, align 8, !tbaa !4
  store ptr %1, ptr %7, align 8, !tbaa !30
  store ptr %2, ptr %8, align 8, !tbaa !11
  store ptr %3, ptr %9, align 8, !tbaa !13
  store ptr %4, ptr %10, align 8, !tbaa !13
  %13 = load ptr, ptr %9, align 8, !tbaa !13
  %14 = call i32 @strcmp(ptr noundef %13, ptr noundef @.str.3) #10
  %15 = icmp ne i32 %14, 0
  br i1 %15, label %25, label %16

16:                                               ; preds = %5
  %17 = load ptr, ptr %10, align 8, !tbaa !13
  %18 = call i32 @atoi(ptr noundef %17) #10
  %19 = load ptr, ptr %8, align 8, !tbaa !11
  %20 = getelementptr inbounds nuw %struct.PayloadContext, ptr %19, i32 0, i32 1
  store i32 %18, ptr %20, align 4, !tbaa !64
  %21 = load ptr, ptr %6, align 8, !tbaa !4
  %22 = load ptr, ptr %8, align 8, !tbaa !11
  %23 = getelementptr inbounds nuw %struct.PayloadContext, ptr %22, i32 0, i32 1
  %24 = load i32, ptr %23, align 4, !tbaa !64
  call void (ptr, i32, ptr, ...) @av_log(ptr noundef %21, i32 noundef 56, ptr noundef @.str.4, i32 noundef %24)
  br label %25

25:                                               ; preds = %16, %5
  %26 = load ptr, ptr %9, align 8, !tbaa !13
  %27 = call i32 @strcmp(ptr noundef %26, ptr noundef @.str.5) #10
  %28 = icmp ne i32 %27, 0
  br i1 %28, label %29, label %41

29:                                               ; preds = %25
  %30 = load ptr, ptr %9, align 8, !tbaa !13
  %31 = call i32 @strcmp(ptr noundef %30, ptr noundef @.str.6) #10
  %32 = icmp ne i32 %31, 0
  br i1 %32, label %33, label %41

33:                                               ; preds = %29
  %34 = load ptr, ptr %9, align 8, !tbaa !13
  %35 = call i32 @strcmp(ptr noundef %34, ptr noundef @.str.7) #10
  %36 = icmp ne i32 %35, 0
  br i1 %36, label %37, label %41

37:                                               ; preds = %33
  %38 = load ptr, ptr %9, align 8, !tbaa !13
  %39 = call i32 @strcmp(ptr noundef %38, ptr noundef @.str.8) #10
  %40 = icmp ne i32 %39, 0
  br i1 %40, label %90, label %41

41:                                               ; preds = %37, %33, %29, %25
  call void @llvm.lifetime.start.p0(i64 8, ptr %11) #9
  store ptr null, ptr %11, align 8, !tbaa !65
  call void @llvm.lifetime.start.p0(i64 8, ptr %12) #9
  store ptr null, ptr %12, align 8, !tbaa !55
  %42 = load ptr, ptr %9, align 8, !tbaa !13
  %43 = call i32 @strcmp(ptr noundef %42, ptr noundef @.str.5) #10
  %44 = icmp ne i32 %43, 0
  br i1 %44, label %50, label %45

45:                                               ; preds = %41
  %46 = load ptr, ptr %8, align 8, !tbaa !11
  %47 = getelementptr inbounds nuw %struct.PayloadContext, ptr %46, i32 0, i32 4
  store ptr %47, ptr %11, align 8, !tbaa !65
  %48 = load ptr, ptr %8, align 8, !tbaa !11
  %49 = getelementptr inbounds nuw %struct.PayloadContext, ptr %48, i32 0, i32 8
  store ptr %49, ptr %12, align 8, !tbaa !55
  br label %84

50:                                               ; preds = %41
  %51 = load ptr, ptr %9, align 8, !tbaa !13
  %52 = call i32 @strcmp(ptr noundef %51, ptr noundef @.str.6) #10
  %53 = icmp ne i32 %52, 0
  br i1 %53, label %59, label %54

54:                                               ; preds = %50
  %55 = load ptr, ptr %8, align 8, !tbaa !11
  %56 = getelementptr inbounds nuw %struct.PayloadContext, ptr %55, i32 0, i32 2
  store ptr %56, ptr %11, align 8, !tbaa !65
  %57 = load ptr, ptr %8, align 8, !tbaa !11
  %58 = getelementptr inbounds nuw %struct.PayloadContext, ptr %57, i32 0, i32 6
  store ptr %58, ptr %12, align 8, !tbaa !55
  br label %83

59:                                               ; preds = %50
  %60 = load ptr, ptr %9, align 8, !tbaa !13
  %61 = call i32 @strcmp(ptr noundef %60, ptr noundef @.str.7) #10
  %62 = icmp ne i32 %61, 0
  br i1 %62, label %68, label %63

63:                                               ; preds = %59
  %64 = load ptr, ptr %8, align 8, !tbaa !11
  %65 = getelementptr inbounds nuw %struct.PayloadContext, ptr %64, i32 0, i32 3
  store ptr %65, ptr %11, align 8, !tbaa !65
  %66 = load ptr, ptr %8, align 8, !tbaa !11
  %67 = getelementptr inbounds nuw %struct.PayloadContext, ptr %66, i32 0, i32 7
  store ptr %67, ptr %12, align 8, !tbaa !55
  br label %82

68:                                               ; preds = %59
  %69 = load ptr, ptr %9, align 8, !tbaa !13
  %70 = call i32 @strcmp(ptr noundef %69, ptr noundef @.str.8) #10
  %71 = icmp ne i32 %70, 0
  br i1 %71, label %77, label %72

72:                                               ; preds = %68
  %73 = load ptr, ptr %8, align 8, !tbaa !11
  %74 = getelementptr inbounds nuw %struct.PayloadContext, ptr %73, i32 0, i32 5
  store ptr %74, ptr %11, align 8, !tbaa !65
  %75 = load ptr, ptr %8, align 8, !tbaa !11
  %76 = getelementptr inbounds nuw %struct.PayloadContext, ptr %75, i32 0, i32 9
  store ptr %76, ptr %12, align 8, !tbaa !55
  br label %81

77:                                               ; preds = %68
  br label %78

78:                                               ; preds = %77
  call void (ptr, i32, ptr, ...) @av_log(ptr noundef null, i32 noundef 0, ptr noundef @.str.9, ptr noundef @.str.10, ptr noundef @.str.11, i32 noundef 89)
  call void @abort() #11
  unreachable

79:                                               ; No predecessors!
  br label %80

80:                                               ; preds = %79
  br label %81

81:                                               ; preds = %80, %72
  br label %82

82:                                               ; preds = %81, %63
  br label %83

83:                                               ; preds = %82, %54
  br label %84

84:                                               ; preds = %83, %45
  %85 = load ptr, ptr %6, align 8, !tbaa !4
  %86 = load ptr, ptr %11, align 8, !tbaa !65
  %87 = load ptr, ptr %12, align 8, !tbaa !55
  %88 = load ptr, ptr %10, align 8, !tbaa !13
  %89 = call i32 @ff_h264_parse_sprop_parameter_sets(ptr noundef %85, ptr noundef %86, ptr noundef %87, ptr noundef %88)
  call void @llvm.lifetime.end.p0(i64 8, ptr %12) #9
  call void @llvm.lifetime.end.p0(i64 8, ptr %11) #9
  br label %90

90:                                               ; preds = %84, %37
  %91 = load ptr, ptr %9, align 8, !tbaa !13
  %92 = call i32 @strcmp(ptr noundef %91, ptr noundef @.str.12) #10
  %93 = icmp ne i32 %92, 0
  br i1 %93, label %106, label %94

94:                                               ; preds = %90
  %95 = load ptr, ptr %10, align 8, !tbaa !13
  %96 = call i32 @atoi(ptr noundef %95) #10
  %97 = icmp sgt i32 %96, 0
  br i1 %97, label %98, label %101

98:                                               ; preds = %94
  %99 = load ptr, ptr %8, align 8, !tbaa !11
  %100 = getelementptr inbounds nuw %struct.PayloadContext, ptr %99, i32 0, i32 0
  store i32 1, ptr %100, align 8, !tbaa !61
  br label %101

101:                                              ; preds = %98, %94
  %102 = load ptr, ptr %6, align 8, !tbaa !4
  %103 = load ptr, ptr %8, align 8, !tbaa !11
  %104 = getelementptr inbounds nuw %struct.PayloadContext, ptr %103, i32 0, i32 0
  %105 = load i32, ptr %104, align 8, !tbaa !61
  call void (ptr, i32, ptr, ...) @av_log(ptr noundef %102, i32 noundef 56, ptr noundef @.str.13, i32 noundef %105)
  br label %106

106:                                              ; preds = %101, %90
  %107 = load ptr, ptr %9, align 8, !tbaa !13
  %108 = call i32 @strcmp(ptr noundef %107, ptr noundef @.str.14) #10
  %109 = icmp ne i32 %108, 0
  br i1 %109, label %122, label %110

110:                                              ; preds = %106
  %111 = load ptr, ptr %10, align 8, !tbaa !13
  %112 = call i32 @atoi(ptr noundef %111) #10
  %113 = icmp sgt i32 %112, 0
  br i1 %113, label %114, label %117

114:                                              ; preds = %110
  %115 = load ptr, ptr %8, align 8, !tbaa !11
  %116 = getelementptr inbounds nuw %struct.PayloadContext, ptr %115, i32 0, i32 0
  store i32 1, ptr %116, align 8, !tbaa !61
  br label %117

117:                                              ; preds = %114, %110
  %118 = load ptr, ptr %6, align 8, !tbaa !4
  %119 = load ptr, ptr %8, align 8, !tbaa !11
  %120 = getelementptr inbounds nuw %struct.PayloadContext, ptr %119, i32 0, i32 0
  %121 = load i32, ptr %120, align 8, !tbaa !61
  call void (ptr, i32, ptr, ...) @av_log(ptr noundef %118, i32 noundef 56, ptr noundef @.str.15, i32 noundef %121)
  br label %122

122:                                              ; preds = %117, %106
  ret i32 0
}