; Function Attrs: cold nounwind optsize uwtable
define internal noundef i32 @hevc_sdp_parse_fmtp_config(ptr noundef %0, ptr readnone captures(none) %1, ptr noundef %2, ptr noundef readonly captures(none) %3, ptr noundef %4) #0 {
  %6 = tail call i32 @strcmp(ptr noundef nonnull dereferenceable(1) %3, ptr noundef nonnull dereferenceable(11) @.str.3) #10
  %.not = icmp eq i32 %6, 0
  br i1 %.not, label %7, label %11

7:                                                ; preds = %5
  %8 = tail call i64 @strtol(ptr noundef nonnull captures(none) %4, ptr noundef null, i32 noundef 10) #9
  %9 = trunc i64 %8 to i32
  %10 = getelementptr inbounds nuw i8, ptr %2, i64 4
  store i32 %9, ptr %10, align 4, !tbaa !52
  tail call void (ptr, i32, ptr, ...) @av_log(ptr noundef %0, i32 noundef 56, ptr noundef nonnull @.str.4, i32 noundef %9) #9
  br label %11

11:                                               ; preds = %7, %5
  %12 = tail call i32 @strcmp(ptr noundef nonnull dereferenceable(1) %3, ptr noundef nonnull dereferenceable(10) @.str.5) #10
  %.not36 = icmp eq i32 %12, 0
  br i1 %.not36, label %24, label %13

13:                                               ; preds = %11
  %14 = tail call i32 @strcmp(ptr noundef nonnull dereferenceable(1) %3, ptr noundef nonnull dereferenceable(10) @.str.6) #10
  %.not37 = icmp eq i32 %14, 0
  br i1 %.not37, label %24, label %15

15:                                               ; preds = %13
  %16 = tail call i32 @strcmp(ptr noundef nonnull dereferenceable(1) %3, ptr noundef nonnull dereferenceable(10) @.str.7) #10
  %.not38 = icmp eq i32 %16, 0
  br i1 %.not38, label %19, label %17

17:                                               ; preds = %15
  %18 = tail call i32 @strcmp(ptr noundef nonnull dereferenceable(1) %3, ptr noundef nonnull dereferenceable(10) @.str.8) #10
  %.not39 = icmp eq i32 %18, 0
  br i1 %.not39, label %19, label %28

19:                                               ; preds = %17, %15
  %20 = tail call i32 @strcmp(ptr noundef nonnull dereferenceable(1) %3, ptr noundef nonnull dereferenceable(10) @.str.7) #10
  %.not42 = icmp eq i32 %20, 0
  br i1 %.not42, label %24, label %21

21:                                               ; preds = %19
  %22 = tail call i32 @strcmp(ptr noundef nonnull dereferenceable(1) %3, ptr noundef nonnull dereferenceable(10) @.str.8) #10
  %.not43 = icmp eq i32 %22, 0
  br i1 %.not43, label %24, label %23

23:                                               ; preds = %21
  tail call void (ptr, i32, ptr, ...) @av_log(ptr noundef null, i32 noundef 0, ptr noundef nonnull @.str.9, ptr noundef nonnull @.str.10, ptr noundef nonnull @.str.11, i32 noundef 89) #9
  tail call void @abort() #11
  unreachable

24:                                               ; preds = %21, %19, %13, %11
  %.sink48 = phi i64 [ 24, %11 ], [ 8, %13 ], [ 16, %19 ], [ 32, %21 ]
  %.sink = phi i64 [ 48, %11 ], [ 40, %13 ], [ 44, %19 ], [ 52, %21 ]
  %25 = getelementptr inbounds nuw i8, ptr %2, i64 %.sink48
  %26 = getelementptr inbounds nuw i8, ptr %2, i64 %.sink
  %27 = tail call i32 @ff_h264_parse_sprop_parameter_sets(ptr noundef %0, ptr noundef nonnull %25, ptr noundef nonnull %26, ptr noundef %4) #9
  br label %28

28:                                               ; preds = %24, %17
  %29 = tail call i32 @strcmp(ptr noundef nonnull dereferenceable(1) %3, ptr noundef nonnull dereferenceable(19) @.str.12) #10
  %.not44 = icmp eq i32 %29, 0
  br i1 %.not44, label %30, label %37

30:                                               ; preds = %28
  %31 = tail call i64 @strtol(ptr noundef nonnull captures(none) %4, ptr noundef null, i32 noundef 10) #9
  %32 = trunc i64 %31 to i32
  %33 = icmp sgt i32 %32, 0
  br i1 %33, label %34, label %._crit_edge

._crit_edge:                                      ; preds = %30
  %.pre = load i32, ptr %2, align 8, !tbaa !49
  br label %35

34:                                               ; preds = %30
  store i32 1, ptr %2, align 8, !tbaa !49
  br label %35

35:                                               ; preds = %._crit_edge, %34
  %36 = phi i32 [ %.pre, %._crit_edge ], [ 1, %34 ]
  tail call void (ptr, i32, ptr, ...) @av_log(ptr noundef %0, i32 noundef 56, ptr noundef nonnull @.str.13, i32 noundef %36) #9
  br label %37

37:                                               ; preds = %35, %28
  %38 = tail call i32 @strcmp(ptr noundef nonnull dereferenceable(1) %3, ptr noundef nonnull dereferenceable(23) @.str.14) #10
  %.not45 = icmp eq i32 %38, 0
  br i1 %.not45, label %39, label %46

39:                                               ; preds = %37
  %40 = tail call i64 @strtol(ptr noundef nonnull captures(none) %4, ptr noundef null, i32 noundef 10) #9
  %41 = trunc i64 %40 to i32
  %42 = icmp sgt i32 %41, 0
  br i1 %42, label %43, label %._crit_edge46

._crit_edge46:                                    ; preds = %39
  %.pre47 = load i32, ptr %2, align 8, !tbaa !49
  br label %44

43:                                               ; preds = %39
  store i32 1, ptr %2, align 8, !tbaa !49
  br label %44

44:                                               ; preds = %._crit_edge46, %43
  %45 = phi i32 [ %.pre47, %._crit_edge46 ], [ 1, %43 ]
  tail call void (ptr, i32, ptr, ...) @av_log(ptr noundef %0, i32 noundef 56, ptr noundef nonnull @.str.15, i32 noundef %45) #9
  br label %46

46:                                               ; preds = %44, %37
  ret i32 0
}